; Function Attrs: mustprogress uwtable
define dso_local void @_Z9readRgba1PKcRN7Imf_3_47Array2DINS1_4RgbaEEERiS6_(ptr noundef %0, ptr noundef nonnull align 8 captures(none) dereferenceable(24) %1, ptr noundef nonnull align 4 captures(none) dereferenceable(4) %2, ptr noundef nonnull writeonly align 4 captures(none) dereferenceable(4) %3) local_unnamed_addr #8 personality ptr @__gxx_personality_v0 {
  %5 = alloca %"class.Imf_3_4::RgbaInputFile", align 8
  call void @llvm.lifetime.start.p0(i64 64, ptr nonnull %5) #36
  %6 = tail call noundef i32 @_ZN7Imf_3_417globalThreadCountEv()
  call void @_ZN7Imf_3_413RgbaInputFileC1EPKci(ptr noundef nonnull align 8 dereferenceable(64) %5, ptr noundef %0, i32 noundef %6)
  %7 = invoke noundef nonnull align 4 dereferenceable(16) ptr @_ZNK7Imf_3_413RgbaInputFile10dataWindowEv(ptr noundef nonnull align 8 dereferenceable(64) %5)
          to label %8 unwind label %43

8:                                                ; preds = %4
  %9 = load i32, ptr %7, align 4, !tbaa !60
  %10 = getelementptr inbounds nuw i8, ptr %7, i64 4
  %11 = load i32, ptr %10, align 4, !tbaa !62
  %12 = getelementptr inbounds nuw i8, ptr %7, i64 8
  %13 = load i32, ptr %12, align 4, !tbaa !60
  %14 = getelementptr inbounds nuw i8, ptr %7, i64 12
  %15 = load i32, ptr %14, align 4, !tbaa !62
  %reass.sub = sub i32 %13, %9
  %16 = add i32 %reass.sub, 1
  store i32 %16, ptr %2, align 4, !tbaa !59
  %17 = sub nsw i32 %15, %11
  %18 = add nsw i32 %17, 1
  store i32 %18, ptr %3, align 4, !tbaa !59
  %19 = sext i32 %18 to i64
  %20 = load i32, ptr %2, align 4, !tbaa !59
  %21 = sext i32 %20 to i64
  %22 = mul nsw i64 %21, %19
  %23 = icmp ugt i64 %22, 2305843009213693951
  %24 = shl nuw i64 %22, 3
  %25 = select i1 %23, i64 -1, i64 %24
  %26 = invoke noalias noundef nonnull ptr @_Znam(i64 noundef %25) #39
          to label %.noexc unwind label %43

.noexc:                                           ; preds = %8
  %27 = getelementptr inbounds nuw i8, ptr %1, i64 16
  %28 = load ptr, ptr %27, align 8, !tbaa !151
  %29 = icmp eq ptr %28, null
  br i1 %29, label %31, label %30

30:                                               ; preds = %.noexc
  call void @_ZdaPv(ptr noundef nonnull %28) #38
  %.pre = load i32, ptr %2, align 4, !tbaa !59
  %.pre14 = sext i32 %.pre to i64
  br label %31

31:                                               ; preds = %30, %.noexc
  %.pre-phi = phi i64 [ %.pre14, %30 ], [ %21, %.noexc ]
  %32 = phi i32 [ %.pre, %30 ], [ %20, %.noexc ]
  store i64 %19, ptr %1, align 8, !tbaa !154
  %33 = getelementptr inbounds nuw i8, ptr %1, i64 8
  store i64 %21, ptr %33, align 8, !tbaa !155
  store ptr %26, ptr %27, align 8, !tbaa !151
  %34 = sext i32 %9 to i64
  %35 = sub nsw i64 0, %34
  %36 = getelementptr inbounds %"struct.Imf_3_4::Rgba", ptr %26, i64 %35
  %37 = mul nsw i32 %32, %11
  %38 = sext i32 %37 to i64
  %39 = sub nsw i64 0, %38
  %40 = getelementptr inbounds %"struct.Imf_3_4::Rgba", ptr %36, i64 %39
  invoke void @_ZN7Imf_3_413RgbaInputFile14setFrameBufferEPNS_4RgbaEmm(ptr noundef nonnull align 8 dereferenceable(64) %5, ptr noundef nonnull %40, i64 noundef 1, i64 noundef %.pre-phi)
          to label %41 unwind label %43

41:                                               ; preds = %31
  invoke void @_ZN7Imf_3_413RgbaInputFile10readPixelsEii(ptr noundef nonnull align 8 dereferenceable(64) %5, i32 noundef %11, i32 noundef %15)
          to label %42 unwind label %43

42:                                               ; preds = %41
  call void @_ZN7Imf_3_413RgbaInputFileD1Ev(ptr noundef nonnull align 8 dereferenceable(64) %5) #36
  call void @llvm.lifetime.end.p0(i64 64, ptr nonnull %5) #36
  ret void

43:                                               ; preds = %8, %41, %31, %4
  %44 = landingpad { ptr, i32 }
          cleanup
  call void @_ZN7Imf_3_413RgbaInputFileD1Ev(ptr noundef nonnull align 8 dereferenceable(64) %5) #36
  call void @llvm.lifetime.end.p0(i64 64, ptr nonnull %5) #36
  resume { ptr, i32 } %44
}